; Function Attrs: mustprogress uwtable
define hidden void @_ZN2cv10BRISK_ImplC1Eiif(ptr noundef nonnull align 8 dereferenceable(96) %0, i32 noundef %1, i32 noundef %2, float noundef %3) unnamed_addr #0 align 2 personality ptr @__gxx_personality_v0 {
  tail call void @_ZN2cv9AlgorithmC2Ev(ptr noundef nonnull align 8 dereferenceable(8) %0)
  store ptr getelementptr inbounds inrange(-80, 176) (i8, ptr @_ZTVN2cv10BRISK_ImplE, i64 80), ptr %0, align 8
  %5 = getelementptr inbounds i8, ptr %0, i64 8
  store i32 %1, ptr %5, align 8
  %6 = getelementptr inbounds i8, ptr %0, i64 12
  store i32 %2, ptr %6, align 4
  invoke void @_ZN2cv10BRISK_Impl15setPatternScaleEf(ptr noundef nonnull align 8 dereferenceable(96) %0, float noundef %3)
          to label %7 unwind label %8

7:                                                ; preds = %4
  ret void

8:                                                ; preds = %4
  %9 = landingpad { ptr, i32 }
          cleanup
  tail call void @_ZN2cv9Feature2DD2Ev(ptr noundef nonnull align 8 dereferenceable(8) %0, ptr noundef nonnull getelementptr inbounds (i8, ptr @_ZTTN2cv10BRISK_ImplE, i64 16)) #22
  tail call void @_ZN2cv9AlgorithmD2Ev(ptr noundef nonnull align 8 dereferenceable(8) %0) #22
  resume { ptr, i32 } %9
}